; Function Attrs: nounwind uwtable
define i32 @Java_sun_awt_X11GraphicsDevice_getConfigDepth(ptr noundef %0, ptr nocapture noundef readnone %1, i32 noundef %2, i32 noundef %3) local_unnamed_addr #0 {
  %5 = load ptr, ptr @x11Screens, align 8
  %6 = sext i32 %3 to i64
  %7 = getelementptr inbounds %struct._AwtScreenData, ptr %5, i64 %6
  %8 = load i32, ptr %7, align 8
  %9 = icmp eq i32 %8, 0
  br i1 %9, label %10, label %ensureConfigsInited.exit

10:                                               ; preds = %4
  %11 = icmp eq ptr %0, null
  br i1 %11, label %12, label %15

12:                                               ; preds = %10
  %13 = load ptr, ptr @jvm, align 8
  %14 = tail call ptr @JNU_GetEnv(ptr noundef %13, i32 noundef 65538) #17
  %.pre.i = load ptr, ptr @x11Screens, align 8
  br label %15

15:                                               ; preds = %12, %10
  %16 = phi ptr [ %.pre.i, %12 ], [ %5, %10 ]
  %.0.i = phi ptr [ %14, %12 ], [ %0, %10 ]
  %17 = getelementptr inbounds %struct._AwtScreenData, ptr %16, i64 %6
  tail call fastcc void @getAllConfigs(ptr noundef %.0.i, i32 noundef %3, ptr noundef %17)
  br label %ensureConfigsInited.exit

ensureConfigsInited.exit:                         ; preds = %4, %15
  %18 = icmp eq i32 %2, 0
  %19 = load ptr, ptr @x11Screens, align 8
  br i1 %18, label %20, label %22

20:                                               ; preds = %ensureConfigsInited.exit
  %21 = getelementptr inbounds %struct._AwtScreenData, ptr %19, i64 %6, i32 4
  br label %27

22:                                               ; preds = %ensureConfigsInited.exit
  %23 = getelementptr inbounds %struct._AwtScreenData, ptr %19, i64 %6, i32 5
  %24 = load ptr, ptr %23, align 8
  %25 = sext i32 %2 to i64
  %26 = getelementptr inbounds ptr, ptr %24, i64 %25
  br label %27

27:                                               ; preds = %22, %20
  %.in = phi ptr [ %21, %20 ], [ %26, %22 ]
  %28 = load ptr, ptr %.in, align 8
  %29 = getelementptr inbounds i8, ptr %28, i64 36
  %30 = load i32, ptr %29, align 4
  ret i32 %30
}